; ModuleID = '57/3343.c'
source_filename = "57/3343.c"
target datalayout = "e-m:e-p270:32:32-p271:32:32-p272:64:64-i64:64-f80:128-n8:16:32:64-S128"
target triple = "x86_64-pc-linux-gnu"

@.str = private unnamed_addr constant [3 x i8] c"%d\00", align 1
@.str.1 = private unnamed_addr constant [3 x i8] c"%c\00", align 1
@.str.2 = private unnamed_addr constant [2 x i8] c"\0A\00", align 1

; Function Attrs: noinline nounwind uwtable
define dso_local void @main() #0 {
  %1 = alloca i32, align 4
  %2 = alloca i32, align 4
  %3 = alloca i32, align 4
  %4 = alloca i32, align 4
  %5 = alloca [50 x [15 x i8]], align 16
  %6 = alloca [50 x i8], align 16
  %7 = bitcast [50 x [15 x i8]]* %5 to i8*
  call void @llvm.memset.p0i8.i64(i8* align 16 %7, i8 0, i64 750, i1 false)
  %8 = bitcast i8* %7 to <{ <{ i8, [14 x i8] }>, [49 x <{ i8, [14 x i8] }>] }>*
  %9 = getelementptr inbounds <{ <{ i8, [14 x i8] }>, [49 x <{ i8, [14 x i8] }>] }>, <{ <{ i8, [14 x i8] }>, [49 x <{ i8, [14 x i8] }>] }>* %8, i32 0, i32 0
  %10 = getelementptr inbounds <{ i8, [14 x i8] }>, <{ i8, [14 x i8] }>* %9, i32 0, i32 0
  store i8 99, i8* %10, align 16
  %11 = bitcast [50 x i8]* %6 to i8*
  call void @llvm.memset.p0i8.i64(i8* align 16 %11, i8 0, i64 50, i1 false)
  %12 = bitcast i8* %11 to <{ i8, [49 x i8] }>*
  %13 = getelementptr inbounds <{ i8, [49 x i8] }>, <{ i8, [49 x i8] }>* %12, i32 0, i32 0
  store i8 99, i8* %13, align 16
  %14 = call i32 (i8*, ...) @__isoc99_scanf(i8* getelementptr inbounds ([3 x i8], [3 x i8]* @.str, i64 0, i64 0), i32* %3)
  store i32 0, i32* %1, align 4
  br label %15

15:                                               ; preds = %112, %0
  %16 = load i32, i32* %1, align 4
  %17 = load i32, i32* %3, align 4
  %18 = add nsw i32 %17, 1
  %19 = icmp slt i32 %16, %18
  br i1 %19, label %20, label %115

20:                                               ; preds = %15
  %21 = getelementptr inbounds [50 x i8], [50 x i8]* %6, i64 0, i64 0
  %22 = call i32 (i8*, ...) bitcast (i32 (...)* @gets to i32 (i8*, ...)*)(i8* %21)
  %23 = getelementptr inbounds [50 x i8], [50 x i8]* %6, i64 0, i64 0
  %24 = call i64 @strlen(i8* %23) #4
  %25 = trunc i64 %24 to i32
  store i32 %25, i32* %4, align 4
  %26 = load i32, i32* %4, align 4
  %27 = sub nsw i32 %26, 2
  %28 = sext i32 %27 to i64
  %29 = getelementptr inbounds [50 x i8], [50 x i8]* %6, i64 0, i64 %28
  %30 = load i8, i8* %29, align 1
  %31 = sext i8 %30 to i32
  %32 = icmp eq i32 %31, 101
  br i1 %32, label %33, label %44

33:                                               ; preds = %20
  %34 = load i32, i32* %4, align 4
  %35 = sub nsw i32 %34, 1
  %36 = sext i32 %35 to i64
  %37 = getelementptr inbounds [50 x i8], [50 x i8]* %6, i64 0, i64 %36
  %38 = load i8, i8* %37, align 1
  %39 = sext i8 %38 to i32
  %40 = icmp eq i32 %39, 114
  br i1 %40, label %41, label %44

41:                                               ; preds = %33
  %42 = load i32, i32* %4, align 4
  %43 = sub nsw i32 %42, 2
  store i32 %43, i32* %4, align 4
  br label %92

44:                                               ; preds = %33, %20
  %45 = load i32, i32* %4, align 4
  %46 = sub nsw i32 %45, 2
  %47 = sext i32 %46 to i64
  %48 = getelementptr inbounds [50 x i8], [50 x i8]* %6, i64 0, i64 %47
  %49 = load i8, i8* %48, align 1
  %50 = sext i8 %49 to i32
  %51 = icmp eq i32 %50, 108
  br i1 %51, label %52, label %63

52:                                               ; preds = %44
  %53 = load i32, i32* %4, align 4
  %54 = sub nsw i32 %53, 1
  %55 = sext i32 %54 to i64
  %56 = getelementptr inbounds [50 x i8], [50 x i8]* %6, i64 0, i64 %55
  %57 = load i8, i8* %56, align 1
  %58 = sext i8 %57 to i32
  %59 = icmp eq i32 %58, 121
  br i1 %59, label %60, label %63

60:                                               ; preds = %52
  %61 = load i32, i32* %4, align 4
  %62 = sub nsw i32 %61, 2
  store i32 %62, i32* %4, align 4
  br label %91

63:                                               ; preds = %52, %44
  %64 = load i32, i32* %4, align 4
  %65 = sub nsw i32 %64, 3
  %66 = sext i32 %65 to i64
  %67 = getelementptr inbounds [50 x i8], [50 x i8]* %6, i64 0, i64 %66
  %68 = load i8, i8* %67, align 1
  %69 = sext i8 %68 to i32
  %70 = icmp eq i32 %69, 105
  br i1 %70, label %71, label %90

71:                                               ; preds = %63
  %72 = load i32, i32* %4, align 4
  %73 = sub nsw i32 %72, 2
  %74 = sext i32 %73 to i64
  %75 = getelementptr inbounds [50 x i8], [50 x i8]* %6, i64 0, i64 %74
  %76 = load i8, i8* %75, align 1
  %77 = sext i8 %76 to i32
  %78 = icmp eq i32 %77, 110
  br i1 %78, label %79, label %90

79:                                               ; preds = %71
  %80 = load i32, i32* %4, align 4
  %81 = sub nsw i32 %80, 1
  %82 = sext i32 %81 to i64
  %83 = getelementptr inbounds [50 x i8], [50 x i8]* %6, i64 0, i64 %82
  %84 = load i8, i8* %83, align 1
  %85 = sext i8 %84 to i32
  %86 = icmp eq i32 %85, 103
  br i1 %86, label %87, label %90

87:                                               ; preds = %79
  %88 = load i32, i32* %4, align 4
  %89 = sub nsw i32 %88, 3
  store i32 %89, i32* %4, align 4
  br label %90

90:                                               ; preds = %87, %79, %71, %63
  br label %91

91:                                               ; preds = %90, %60
  br label %92

92:                                               ; preds = %91, %41
  store i32 0, i32* %2, align 4
  br label %93

93:                                               ; preds = %108, %92
  %94 = load i32, i32* %2, align 4
  %95 = load i32, i32* %4, align 4
  %96 = icmp slt i32 %94, %95
  br i1 %96, label %97, label %111

97:                                               ; preds = %93
  %98 = load i32, i32* %2, align 4
  %99 = sext i32 %98 to i64
  %100 = getelementptr inbounds [50 x i8], [50 x i8]* %6, i64 0, i64 %99
  %101 = load i8, i8* %100, align 1
  %102 = load i32, i32* %1, align 4
  %103 = sext i32 %102 to i64
  %104 = getelementptr inbounds [50 x [15 x i8]], [50 x [15 x i8]]* %5, i64 0, i64 %103
  %105 = load i32, i32* %2, align 4
  %106 = sext i32 %105 to i64
  %107 = getelementptr inbounds [15 x i8], [15 x i8]* %104, i64 0, i64 %106
  store i8 %101, i8* %107, align 1
  br label %108

108:                                              ; preds = %97
  %109 = load i32, i32* %2, align 4
  %110 = add nsw i32 %109, 1
  store i32 %110, i32* %2, align 4
  br label %93

111:                                              ; preds = %93
  br label %112

112:                                              ; preds = %111
  %113 = load i32, i32* %1, align 4
  %114 = add nsw i32 %113, 1
  store i32 %114, i32* %1, align 4
  br label %15

115:                                              ; preds = %15
  store i32 1, i32* %1, align 4
  br label %116

116:                                              ; preds = %157, %115
  %117 = load i32, i32* %1, align 4
  %118 = load i32, i32* %3, align 4
  %119 = add nsw i32 %118, 1
  %120 = icmp slt i32 %117, %119
  br i1 %120, label %121, label %160

121:                                              ; preds = %116
  store i32 0, i32* %2, align 4
  br label %122

122:                                              ; preds = %132, %121
  %123 = load i32, i32* %1, align 4
  %124 = sext i32 %123 to i64
  %125 = getelementptr inbounds [50 x [15 x i8]], [50 x [15 x i8]]* %5, i64 0, i64 %124
  %126 = load i32, i32* %2, align 4
  %127 = sext i32 %126 to i64
  %128 = getelementptr inbounds [15 x i8], [15 x i8]* %125, i64 0, i64 %127
  %129 = load i8, i8* %128, align 1
  %130 = sext i8 %129 to i32
  %131 = icmp ne i32 %130, 0
  br i1 %131, label %132, label %144

132:                                              ; preds = %122
  %133 = load i32, i32* %1, align 4
  %134 = sext i32 %133 to i64
  %135 = getelementptr inbounds [50 x [15 x i8]], [50 x [15 x i8]]* %5, i64 0, i64 %134
  %136 = load i32, i32* %2, align 4
  %137 = sext i32 %136 to i64
  %138 = getelementptr inbounds [15 x i8], [15 x i8]* %135, i64 0, i64 %137
  %139 = load i8, i8* %138, align 1
  %140 = sext i8 %139 to i32
  %141 = call i32 (i8*, ...) @printf(i8* getelementptr inbounds ([3 x i8], [3 x i8]* @.str.1, i64 0, i64 0), i32 %140)
  %142 = load i32, i32* %2, align 4
  %143 = add nsw i32 %142, 1
  store i32 %143, i32* %2, align 4
  br label %122

144:                                              ; preds = %122
  %145 = load i32, i32* %1, align 4
  %146 = sext i32 %145 to i64
  %147 = getelementptr inbounds [50 x [15 x i8]], [50 x [15 x i8]]* %5, i64 0, i64 %146
  %148 = load i32, i32* %2, align 4
  %149 = sext i32 %148 to i64
  %150 = getelementptr inbounds [15 x i8], [15 x i8]* %147, i64 0, i64 %149
  %151 = load i8, i8* %150, align 1
  %152 = sext i8 %151 to i32
  %153 = icmp eq i32 %152, 0
  br i1 %153, label %154, label %156

154:                                              ; preds = %144
  %155 = call i32 (i8*, ...) @printf(i8* getelementptr inbounds ([2 x i8], [2 x i8]* @.str.2, i64 0, i64 0))
  br label %156

156:                                              ; preds = %154, %144
  br label %157

157:                                              ; preds = %156
  %158 = load i32, i32* %1, align 4
  %159 = add nsw i32 %158, 1
  store i32 %159, i32* %1, align 4
  br label %116

160:                                              ; preds = %116
  ret void
}

; Function Attrs: argmemonly nounwind willreturn
declare void @llvm.memset.p0i8.i64(i8* nocapture writeonly, i8, i64, i1 immarg) #1

declare dso_local i32 @__isoc99_scanf(i8*, ...) #2

declare dso_local i32 @gets(...) #2

; Function Attrs: nounwind readonly
declare dso_local i64 @strlen(i8*) #3

declare dso_local i32 @printf(i8*, ...) #2


!llvm.module.flags = !{!0}
!llvm.ident = !{!1}

!0 = !{i32 1, !"wchar_size", i32 4}
!1 = !{!"clang version 10.0.0-4ubuntu1 "}
